; Function Attrs: nounwind uwtable
define i32 @ossl_decoder_store_cache_flush(ptr noundef %0) local_unnamed_addr #2 {
  %2 = tail call ptr @ossl_lib_ctx_get_data(ptr noundef %0, i32 noundef 11) #8
  %.not = icmp eq ptr %2, null
  br i1 %.not, label %5, label %3

3:                                                ; preds = %1
  %4 = tail call i32 @ossl_method_store_cache_flush_all(ptr noundef nonnull %2) #8
  br label %5

5:                                                ; preds = %1, %3
  %.0 = phi i32 [ %4, %3 ], [ 1, %1 ]
  ret i32 %.0
}